; Function Attrs: mustprogress nounwind uwtable
define hidden void @_ZN24ShenandoahEvacOOMHandler15register_threadEP6Thread(ptr nocapture noundef nonnull readonly align 8 dereferenceable(80) %0, ptr noundef %1) local_unnamed_addr #1 align 2 {
  %3 = ptrtoint ptr %1 to i64
  %4 = lshr i64 %3, 33
  %5 = xor i64 %4, %3
  %6 = mul i64 %5, -49064778989728563
  %7 = lshr i64 %6, 33
  %8 = xor i64 %7, %6
  %9 = mul i64 %8, -4265267296055464877
  %10 = lshr i64 %9, 33
  %11 = xor i64 %10, %9
  %12 = getelementptr inbounds i8, ptr %0, i64 72
  %13 = load ptr, ptr %12, align 8
  %14 = load i32, ptr %0, align 8
  %15 = add nsw i32 %14, -1
  %16 = sext i32 %15 to i64
  %17 = and i64 %11, %16
  %18 = getelementptr inbounds %class.ShenandoahEvacOOMCounter, ptr %13, i64 %17
  %19 = load volatile i32, ptr %18, align 4
  tail call void asm sideeffect "", "~{memory},~{dirflag},~{fpsr},~{flags}"() #8, !srcloc !8
  br label %20

20:                                               ; preds = %21, %2
  %.07.i = phi i32 [ %19, %2 ], [ %23, %21 ]
  %.not.i = icmp sgt i32 %.07.i, -1
  br i1 %.not.i, label %21, label %_ZN24ShenandoahEvacOOMCounter13try_incrementEv.exit

21:                                               ; preds = %20
  %22 = add nuw nsw i32 %.07.i, 1
  %23 = tail call noundef i32 asm sideeffect "lock cmpxchgl $1,($3)", "={ax},r,{ax},r,~{cc},~{memory},~{dirflag},~{fpsr},~{flags}"(i32 %22, i32 %.07.i, ptr nonnull %18) #8, !srcloc !9
  %24 = icmp eq i32 %23, %.07.i
  br i1 %24, label %_ZN24ShenandoahEvacOOMCounter13try_incrementEv.exit.thread, label %20, !llvm.loop !12

_ZN24ShenandoahEvacOOMCounter13try_incrementEv.exit: ; preds = %20
  %25 = load i32, ptr %0, align 8
  %26 = icmp sgt i32 %25, 0
  br i1 %26, label %.lr.ph.i, label %_ZN24ShenandoahEvacOOMHandler24wait_for_no_evac_threadsEv.exit

.lr.ph.i:                                         ; preds = %_ZN24ShenandoahEvacOOMCounter13try_incrementEv.exit, %_ZN24ShenandoahEvacOOMHandler20wait_for_one_counterEP24ShenandoahEvacOOMCounter.exit.i
  %indvars.iv.i = phi i64 [ %indvars.iv.next.i, %_ZN24ShenandoahEvacOOMHandler20wait_for_one_counterEP24ShenandoahEvacOOMCounter.exit.i ], [ 0, %_ZN24ShenandoahEvacOOMCounter13try_incrementEv.exit ]
  %27 = load ptr, ptr %12, align 8
  %28 = getelementptr inbounds %class.ShenandoahEvacOOMCounter, ptr %27, i64 %indvars.iv.i
  %29 = load volatile i32, ptr %28, align 4
  tail call void asm sideeffect "", "~{memory},~{dirflag},~{fpsr},~{flags}"() #8, !srcloc !8
  %.not1.i.i = icmp eq i32 %29, -2147483648
  br i1 %.not1.i.i, label %_ZN24ShenandoahEvacOOMHandler20wait_for_one_counterEP24ShenandoahEvacOOMCounter.exit.i, label %.lr.ph.i.i

.lr.ph.i.i:                                       ; preds = %.lr.ph.i, %.lr.ph.i.i
  tail call void @_ZN2os17naked_short_sleepEl(i64 noundef 1) #8
  %30 = load volatile i32, ptr %28, align 4
  tail call void asm sideeffect "", "~{memory},~{dirflag},~{fpsr},~{flags}"() #8, !srcloc !8
  %.not.i.i = icmp eq i32 %30, -2147483648
  br i1 %.not.i.i, label %_ZN24ShenandoahEvacOOMHandler20wait_for_one_counterEP24ShenandoahEvacOOMCounter.exit.i, label %.lr.ph.i.i, !llvm.loop !14

_ZN24ShenandoahEvacOOMHandler20wait_for_one_counterEP24ShenandoahEvacOOMCounter.exit.i: ; preds = %.lr.ph.i.i, %.lr.ph.i
  %indvars.iv.next.i = add nuw nsw i64 %indvars.iv.i, 1
  %31 = load i32, ptr %0, align 8
  %32 = sext i32 %31 to i64
  %33 = icmp slt i64 %indvars.iv.next.i, %32
  br i1 %33, label %.lr.ph.i, label %_ZN24ShenandoahEvacOOMHandler24wait_for_no_evac_threadsEv.exit, !llvm.loop !15

_ZN24ShenandoahEvacOOMHandler24wait_for_no_evac_threadsEv.exit: ; preds = %_ZN24ShenandoahEvacOOMHandler20wait_for_one_counterEP24ShenandoahEvacOOMCounter.exit.i, %_ZN24ShenandoahEvacOOMCounter13try_incrementEv.exit
  %34 = tail call align 8 ptr @llvm.threadlocal.address.p0(ptr align 8 @_ZN6Thread12_thr_currentE)
  %35 = load ptr, ptr %34, align 8
  %36 = getelementptr inbounds i8, ptr %35, i64 42
  store i8 1, ptr %36, align 2
  br label %_ZN24ShenandoahEvacOOMCounter13try_incrementEv.exit.thread

_ZN24ShenandoahEvacOOMCounter13try_incrementEv.exit.thread: ; preds = %21, %_ZN24ShenandoahEvacOOMHandler24wait_for_no_evac_threadsEv.exit
  ret void
}